; Function Attrs: mustprogress nounwind uwtable
define hidden void @_ZNK14XPageAllocator22enable_deferred_deleteEv(ptr nocapture noundef nonnull align 8 dereferenceable(609) %0) local_unnamed_addr #1 align 2 {
  %2 = getelementptr inbounds i8, ptr %0, i64 536
  %3 = load ptr, ptr %2, align 8
  %.not.i.i = icmp eq ptr %3, null
  br i1 %.not.i.i, label %_ZN7XLockerI5XLockEC2EPS0_.exit.thread.i, label %7

_ZN7XLockerI5XLockEC2EPS0_.exit.thread.i:         ; preds = %1
  %4 = getelementptr inbounds i8, ptr %0, i64 544
  %5 = load i64, ptr %4, align 8
  %6 = add i64 %5, 1
  store i64 %6, ptr %4, align 8
  br label %_ZN15XSafeDeleteImplI5XPageE22enable_deferred_deleteEv.exit

7:                                                ; preds = %1
  %8 = tail call i32 @pthread_mutex_lock(ptr noundef nonnull %3) #14
  %9 = getelementptr inbounds i8, ptr %0, i64 544
  %10 = load i64, ptr %9, align 8
  %11 = add i64 %10, 1
  store i64 %11, ptr %9, align 8
  %12 = tail call i32 @pthread_mutex_unlock(ptr noundef nonnull %3) #14
  br label %_ZN15XSafeDeleteImplI5XPageE22enable_deferred_deleteEv.exit

_ZN15XSafeDeleteImplI5XPageE22enable_deferred_deleteEv.exit: ; preds = %_ZN7XLockerI5XLockEC2EPS0_.exit.thread.i, %7
  ret void
}